target datalayout = "e-m:e-p270:32:32-p271:32:32-p272:64:64-i64:64-i128:128-f80:128-n8:16:32:64-S128"
target triple = "x86_64-pc-linux-gnu"

%"class.base::TimeDelta" = type { i64 }
%"class.base::internal::CheckedNumeric" = type { %"class.base::internal::CheckedNumericState" }
%"class.base::internal::CheckedNumericState" = type <{ i64, i8, [7 x i8] }>

; Function Attrs: mustprogress uwtable
define linkonce_odr void @_ZN4base8internal19CheckedNumericStateIlLNS0_21NumericRepresentationE0EEC2IlEET_NS0_15RangeConstraintE(ptr noundef nonnull align 8 dereferenceable(9) %0, i64 noundef %1, i32 noundef %2) unnamed_addr #0 comdat align 2 {
  %4 = alloca ptr, align 8
  %5 = alloca i64, align 8
  %6 = alloca i32, align 4
  store ptr %0, ptr %4, align 8, !tbaa !95
  store i64 %1, ptr %5, align 8, !tbaa !8
  store i32 %2, ptr %6, align 4, !tbaa !100
  %7 = load ptr, ptr %4, align 8
  %8 = getelementptr inbounds nuw %"class.base::internal::CheckedNumericState", ptr %7, i32 0, i32 0
  %9 = load i64, ptr %5, align 8, !tbaa !8
  store i64 %9, ptr %8, align 8, !tbaa !97
  %10 = getelementptr inbounds nuw %"class.base::internal::CheckedNumericState", ptr %7, i32 0, i32 1
  %11 = load i32, ptr %6, align 4, !tbaa !100
  %12 = load i64, ptr %5, align 8, !tbaa !8
  %13 = call noundef i32 @_ZN4base8internal26DstRangeRelationToSrcRangeIllEENS0_15RangeConstraintET0_(i64 noundef %12)
  %14 = or i32 %11, %13
  %15 = call noundef i32 @_ZN4base8internal18GetRangeConstraintEi(i32 noundef %14)
  %16 = trunc i32 %15 to i8
  store i8 %16, ptr %10, align 8
  ret void
}

; Function Attrs: mustprogress nounwind uwtable
define linkonce_odr noundef zeroext i1 @_ZN4base8internal10HasSignBitImEEbT_(i64 noundef %0) #1 comdat {
  %2 = alloca i64, align 8
  store i64 %0, ptr %2, align 8, !tbaa !8
  %3 = load i64, ptr %2, align 8, !tbaa !8
  %4 = lshr i64 %3, 63
  %5 = icmp ne i64 %4, 0
  %6 = xor i1 %5, true
  %7 = xor i1 %6, true
  ret i1 %7
}

; Function Attrs: mustprogress nounwind uwtable
define linkonce_odr noundef i64 @_ZN4base8internal16BinaryComplementImEET_S2_(i64 noundef %0) #1 comdat {
  %2 = alloca i64, align 8
  store i64 %0, ptr %2, align 8, !tbaa !8
  %3 = load i64, ptr %2, align 8, !tbaa !8
  %4 = xor i64 %3, -1
  ret i64 %4
}

; Function Attrs: mustprogress nounwind uwtable
define linkonce_odr noundef i32 @_ZN4base8internal30DstRangeRelationToSrcRangeImplIllLNS0_21IntegerRepresentationE1ELS2_1ELNS0_26NumericRangeRepresentationE1EE5CheckEl(i64 noundef %0) #1 comdat align 2 {
  %2 = alloca i64, align 8
  store i64 %0, ptr %2, align 8, !tbaa !8
  ret i32 0
}

; Function Attrs: mustprogress nounwind uwtable
define linkonce_odr noundef i32 @_ZNK4base8internal19CheckedNumericStateIlLNS0_21NumericRepresentationE0EE8validityEv(ptr noundef nonnull align 8 dereferenceable(9) %0) #1 comdat align 2 {
  %2 = alloca ptr, align 8
  store ptr %0, ptr %2, align 8, !tbaa !95
  %3 = load ptr, ptr %2, align 8
  %4 = getelementptr inbounds nuw %"class.base::internal::CheckedNumericState", ptr %3, i32 0, i32 1
  %5 = load i8, ptr %4, align 8
  %6 = zext i8 %5 to i32
  ret i32 %6
}

; Function Attrs: mustprogress nounwind uwtable
define linkonce_odr noundef i64 @_ZNK4base8internal19CheckedNumericStateIlLNS0_21NumericRepresentationE0EE5valueEv(ptr noundef nonnull align 8 dereferenceable(9) %0) #1 comdat align 2 {
  %2 = alloca ptr, align 8
  store ptr %0, ptr %2, align 8, !tbaa !95
  %3 = load ptr, ptr %2, align 8
  %4 = getelementptr inbounds nuw %"class.base::internal::CheckedNumericState", ptr %3, i32 0, i32 0
  %5 = load i64, ptr %4, align 8, !tbaa !97
  ret i64 %5
}

; Function Attrs: mustprogress uwtable
define linkonce_odr void @_ZN4base8internal14CheckedNumericIlEC2IlEET_NS0_15RangeConstraintE(ptr noundef nonnull align 8 dereferenceable(16) %0, i64 noundef %1, i32 noundef %2) unnamed_addr #0 comdat align 2 {
  %4 = alloca ptr, align 8
  %5 = alloca i64, align 8
  %6 = alloca i32, align 4
  store ptr %0, ptr %4, align 8, !tbaa !14
  store i64 %1, ptr %5, align 8, !tbaa !8
  store i32 %2, ptr %6, align 4, !tbaa !100
  %7 = load ptr, ptr %4, align 8
  %8 = getelementptr inbounds nuw %"class.base::internal::CheckedNumeric", ptr %7, i32 0, i32 0
  %9 = load i64, ptr %5, align 8, !tbaa !8
  %10 = load i32, ptr %6, align 4, !tbaa !100
  call void @_ZN4base8internal19CheckedNumericStateIlLNS0_21NumericRepresentationE0EEC2IlEET_NS0_15RangeConstraintE(ptr noundef nonnull align 8 dereferenceable(9) %8, i64 noundef %9, i32 noundef %10)
  ret void
}

; Function Attrs: mustprogress nounwind uwtable
define linkonce_odr noundef i32 @_ZN4base8internal18GetRangeConstraintEi(i32 noundef %0) #1 comdat {
  %2 = alloca i32, align 4
  store i32 %0, ptr %2, align 4, !tbaa !72
  %3 = load i32, ptr %2, align 4, !tbaa !72
  ret i32 %3
}

; Function Attrs: mustprogress uwtable
define linkonce_odr noundef i64 @_ZN4base8internal10CheckedAddIlEENSt9enable_ifIXsr3std14numeric_limitsIT_EE10is_integerES3_E4typeES3_S3_PNS0_15RangeConstraintE(i64 noundef %0, i64 noundef %1, ptr noundef %2) #0 comdat {
  %4 = alloca i64, align 8
  %5 = alloca i64, align 8
  %6 = alloca ptr, align 8
  %7 = alloca i64, align 8
  %8 = alloca i64, align 8
  %9 = alloca i64, align 8
  store i64 %0, ptr %4, align 8, !tbaa !8
  store i64 %1, ptr %5, align 8, !tbaa !8
  store ptr %2, ptr %6, align 8, !tbaa !101
  call void @llvm.lifetime.start.p0(i64 8, ptr %7) #12
  %10 = load i64, ptr %4, align 8, !tbaa !8
  store i64 %10, ptr %7, align 8, !tbaa !8
  call void @llvm.lifetime.start.p0(i64 8, ptr %8) #12
  %11 = load i64, ptr %5, align 8, !tbaa !8
  store i64 %11, ptr %8, align 8, !tbaa !8
  call void @llvm.lifetime.start.p0(i64 8, ptr %9) #12
  %12 = load i64, ptr %7, align 8, !tbaa !8
  %13 = load i64, ptr %8, align 8, !tbaa !8
  %14 = add i64 %12, %13
  store i64 %14, ptr %9, align 8, !tbaa !8
  %15 = load i64, ptr %9, align 8, !tbaa !8
  %16 = load i64, ptr %7, align 8, !tbaa !8
  %17 = xor i64 %15, %16
  %18 = load i64, ptr %9, align 8, !tbaa !8
  %19 = load i64, ptr %8, align 8, !tbaa !8
  %20 = xor i64 %18, %19
  %21 = and i64 %17, %20
  %22 = call noundef i64 @_ZN4base8internal16BinaryComplementImEET_S2_(i64 noundef %21)
  %23 = call noundef zeroext i1 @_ZN4base8internal10HasSignBitImEEbT_(i64 noundef %22)
  br i1 %23, label %24, label %26

24:                                               ; preds = %3
  %25 = load ptr, ptr %6, align 8, !tbaa !101
  store i32 0, ptr %25, align 4, !tbaa !100
  br label %31

26:                                               ; preds = %3
  %27 = load i64, ptr %9, align 8, !tbaa !8
  %28 = call noundef zeroext i1 @_ZN4base8internal10HasSignBitImEEbT_(i64 noundef %27)
  %29 = select i1 %28, i32 2, i32 1
  %30 = load ptr, ptr %6, align 8, !tbaa !101
  store i32 %29, ptr %30, align 4, !tbaa !100
  br label %31

31:                                               ; preds = %26, %24
  %32 = load i64, ptr %9, align 8, !tbaa !8
  call void @llvm.lifetime.end.p0(i64 8, ptr %9) #12
  call void @llvm.lifetime.end.p0(i64 8, ptr %8) #12
  call void @llvm.lifetime.end.p0(i64 8, ptr %7) #12
  ret i64 %32
}

; Function Attrs: mustprogress uwtable
define linkonce_odr noundef i32 @_ZN4base8internal26DstRangeRelationToSrcRangeIllEENS0_15RangeConstraintET0_(i64 noundef %0) #0 comdat {
  %2 = alloca i64, align 8
  store i64 %0, ptr %2, align 8, !tbaa !8
  %3 = load i64, ptr %2, align 8, !tbaa !8
  %4 = call noundef i32 @_ZN4base8internal30DstRangeRelationToSrcRangeImplIllLNS0_21IntegerRepresentationE1ELS2_1ELNS0_26NumericRangeRepresentationE1EE5CheckEl(i64 noundef %3)
  ret i32 %4
}

; Function Attrs: mustprogress uwtable
define linkonce_odr noundef i64 @_ZNK4base8internal14CheckedNumericIlE14ValueOrDefaultEl(ptr noundef nonnull align 8 dereferenceable(16) %0, i64 noundef %1) #0 comdat align 2 {
  %3 = alloca ptr, align 8
  %4 = alloca i64, align 8
  store ptr %0, ptr %3, align 8, !tbaa !14
  store i64 %1, ptr %4, align 8, !tbaa !8
  %5 = load ptr, ptr %3, align 8
  %6 = call noundef zeroext i1 @_ZNK4base8internal14CheckedNumericIlE7IsValidEv(ptr noundef nonnull align 8 dereferenceable(16) %5)
  br i1 %6, label %7, label %10

7:                                                ; preds = %2
  %8 = getelementptr inbounds nuw %"class.base::internal::CheckedNumeric", ptr %5, i32 0, i32 0
  %9 = call noundef i64 @_ZNK4base8internal19CheckedNumericStateIlLNS0_21NumericRepresentationE0EE5valueEv(ptr noundef nonnull align 8 dereferenceable(9) %8)
  br label %12

10:                                               ; preds = %2
  %11 = load i64, ptr %4, align 8, !tbaa !8
  br label %12

12:                                               ; preds = %10, %7
  %13 = phi i64 [ %9, %7 ], [ %11, %10 ]
  ret i64 %13
}

; Function Attrs: mustprogress uwtable
define linkonce_odr noundef i32 @_ZNK4base8internal14CheckedNumericIlE8validityEv(ptr noundef nonnull align 8 dereferenceable(16) %0) #0 comdat align 2 {
  %2 = alloca ptr, align 8
  store ptr %0, ptr %2, align 8, !tbaa !14
  %3 = load ptr, ptr %2, align 8
  %4 = getelementptr inbounds nuw %"class.base::internal::CheckedNumeric", ptr %3, i32 0, i32 0
  %5 = call noundef i32 @_ZNK4base8internal19CheckedNumericStateIlLNS0_21NumericRepresentationE0EE8validityEv(ptr noundef nonnull align 8 dereferenceable(9) %4)
  ret i32 %5
}

; Function Attrs: mustprogress nounwind uwtable
define linkonce_odr noundef i64 @_ZNSt14numeric_limitsIlE3maxEv() #1 comdat align 2 {
  ret i64 9223372036854775807
}

; Function Attrs: mustprogress uwtable
define linkonce_odr noundef i64 @_ZNK4base8internal14CheckedNumericIlE11ValueUnsafeEv(ptr noundef nonnull align 8 dereferenceable(16) %0) #0 comdat align 2 {
  %2 = alloca ptr, align 8
  store ptr %0, ptr %2, align 8, !tbaa !14
  %3 = load ptr, ptr %2, align 8
  %4 = getelementptr inbounds nuw %"class.base::internal::CheckedNumeric", ptr %3, i32 0, i32 0
  %5 = call noundef i64 @_ZNK4base8internal19CheckedNumericStateIlLNS0_21NumericRepresentationE0EE5valueEv(ptr noundef nonnull align 8 dereferenceable(9) %4)
  ret i64 %5
}

; Function Attrs: mustprogress uwtable
define linkonce_odr noundef zeroext i1 @_ZNK4base8internal14CheckedNumericIlE7IsValidEv(ptr noundef nonnull align 8 dereferenceable(16) %0) #0 comdat align 2 {
  %2 = alloca ptr, align 8
  store ptr %0, ptr %2, align 8, !tbaa !14
  %3 = load ptr, ptr %2, align 8
  %4 = call noundef i32 @_ZNK4base8internal14CheckedNumericIlE8validityEv(ptr noundef nonnull align 8 dereferenceable(16) %3)
  %5 = icmp eq i32 %4, 0
  ret i1 %5
}

; Function Attrs: mustprogress uwtable
define linkonce_odr { i64, i64 } @_ZN4base8internalplIlEENS0_14CheckedNumericINS0_19ArithmeticPromotionIT_S4_Xqugtsr11MaxExponentIS4_EE5valuesr11MaxExponentIS4_EE5valueLNS0_27ArithmeticPromotionCategoryE0ELS5_1EEE4typeEEERKNS2_IS4_EESB_(ptr noundef nonnull align 8 dereferenceable(16) %0, ptr noundef nonnull align 8 dereferenceable(16) %1) #0 comdat {
  %3 = alloca %"class.base::internal::CheckedNumeric", align 8
  %4 = alloca ptr, align 8
  %5 = alloca ptr, align 8
  %6 = alloca i32, align 4
  %7 = alloca i64, align 8
  store ptr %0, ptr %4, align 8, !tbaa !14
  store ptr %1, ptr %5, align 8, !tbaa !14
  call void @llvm.lifetime.start.p0(i64 4, ptr %6) #12
  store i32 0, ptr %6, align 4, !tbaa !100
  call void @llvm.lifetime.start.p0(i64 8, ptr %7) #12
  %8 = load ptr, ptr %4, align 8, !tbaa !14
  %9 = call noundef i64 @_ZNK4base8internal14CheckedNumericIlE11ValueUnsafeEv(ptr noundef nonnull align 8 dereferenceable(16) %8)
  %10 = load ptr, ptr %5, align 8, !tbaa !14
  %11 = call noundef i64 @_ZNK4base8internal14CheckedNumericIlE11ValueUnsafeEv(ptr noundef nonnull align 8 dereferenceable(16) %10)
  %12 = call noundef i64 @_ZN4base8internal10CheckedAddIlEENSt9enable_ifIXsr3std14numeric_limitsIT_EE10is_integerES3_E4typeES3_S3_PNS0_15RangeConstraintE(i64 noundef %9, i64 noundef %11, ptr noundef %6)
  store i64 %12, ptr %7, align 8, !tbaa !8
  %13 = load i64, ptr %7, align 8, !tbaa !8
  %14 = load i32, ptr %6, align 4, !tbaa !100
  %15 = load ptr, ptr %4, align 8, !tbaa !14
  %16 = call noundef i32 @_ZNK4base8internal14CheckedNumericIlE8validityEv(ptr noundef nonnull align 8 dereferenceable(16) %15)
  %17 = or i32 %14, %16
  %18 = load ptr, ptr %5, align 8, !tbaa !14
  %19 = call noundef i32 @_ZNK4base8internal14CheckedNumericIlE8validityEv(ptr noundef nonnull align 8 dereferenceable(16) %18)
  %20 = or i32 %17, %19
  %21 = call noundef i32 @_ZN4base8internal18GetRangeConstraintEi(i32 noundef %20)
  call void @_ZN4base8internal14CheckedNumericIlEC2IlEET_NS0_15RangeConstraintE(ptr noundef nonnull align 8 dereferenceable(16) %3, i64 noundef %13, i32 noundef %21)
  call void @llvm.lifetime.end.p0(i64 8, ptr %7) #12
  call void @llvm.lifetime.end.p0(i64 4, ptr %6) #12
  %22 = getelementptr inbounds nuw %"class.base::internal::CheckedNumeric", ptr %3, i32 0, i32 0
  %23 = load { i64, i64 }, ptr %22, align 8
  ret { i64, i64 } %23
}

; Function Attrs: mustprogress uwtable
define linkonce_odr { i64, i64 } @_ZN4base8internal14CheckedNumericIlE4castIlEES2_T_NSt9enable_ifIXsr3std14numeric_limitsIS4_EE14is_specializedEiE4typeE(i64 noundef %0, i32 noundef %1) #0 comdat align 2 {
  %3 = alloca %"class.base::internal::CheckedNumeric", align 8
  %4 = alloca i64, align 8
  %5 = alloca i32, align 4
  store i64 %0, ptr %4, align 8, !tbaa !8
  store i32 %1, ptr %5, align 4, !tbaa !72
  %6 = load i64, ptr %4, align 8, !tbaa !8
  call void @_ZN4base8internal14CheckedNumericIlEC2IlEET_(ptr noundef nonnull align 8 dereferenceable(16) %3, i64 noundef %6)
  %7 = getelementptr inbounds nuw %"class.base::internal::CheckedNumeric", ptr %3, i32 0, i32 0
  %8 = load { i64, i64 }, ptr %7, align 8
  ret { i64, i64 } %8
}

; Function Attrs: mustprogress nounwind uwtable
define linkonce_odr noundef nonnull align 8 dereferenceable(16) ptr @_ZN4base8internal14CheckedNumericIlE4castERKS2_(ptr noundef nonnull align 8 dereferenceable(16) %0) #1 comdat align 2 {
  %2 = alloca ptr, align 8
  store ptr %0, ptr %2, align 8, !tbaa !14
  %3 = load ptr, ptr %2, align 8, !tbaa !14
  ret ptr %3
}

; Function Attrs: mustprogress uwtable
define linkonce_odr void @_ZN4base8internal19CheckedNumericStateIlLNS0_21NumericRepresentationE0EEC2IlEET_NSt9enable_ifIXsr3std14numeric_limitsIS5_EE14is_specializedEiE4typeE(ptr noundef nonnull align 8 dereferenceable(9) %0, i64 noundef %1, i32 noundef %2) unnamed_addr #0 comdat align 2 {
  %4 = alloca ptr, align 8
  %5 = alloca i64, align 8
  %6 = alloca i32, align 4
  store ptr %0, ptr %4, align 8, !tbaa !95
  store i64 %1, ptr %5, align 8, !tbaa !8
  store i32 %2, ptr %6, align 4, !tbaa !72
  %7 = load ptr, ptr %4, align 8
  %8 = getelementptr inbounds nuw %"class.base::internal::CheckedNumericState", ptr %7, i32 0, i32 0
  %9 = load i64, ptr %5, align 8, !tbaa !8
  store i64 %9, ptr %8, align 8, !tbaa !97
  %10 = getelementptr inbounds nuw %"class.base::internal::CheckedNumericState", ptr %7, i32 0, i32 1
  %11 = load i64, ptr %5, align 8, !tbaa !8
  %12 = call noundef i32 @_ZN4base8internal26DstRangeRelationToSrcRangeIllEENS0_15RangeConstraintET0_(i64 noundef %11)
  %13 = trunc i32 %12 to i8
  store i8 %13, ptr %10, align 8
  ret void
}

; Function Attrs: mustprogress uwtable
define noundef i64 @_ZN4base13time_internal18FromCheckedNumericENS_8internal14CheckedNumericIlEE(i64 %0, i64 %1) #0 {
  %3 = alloca i64, align 8
  %4 = alloca %"class.base::internal::CheckedNumeric", align 8
  %5 = alloca i64, align 8
  %6 = getelementptr inbounds nuw { i64, i64 }, ptr %4, i32 0, i32 0
  store i64 %0, ptr %6, align 8
  %7 = getelementptr inbounds nuw { i64, i64 }, ptr %4, i32 0, i32 1
  store i64 %1, ptr %7, align 8
  %8 = call noundef zeroext i1 @_ZNK4base8internal14CheckedNumericIlE7IsValidEv(ptr noundef nonnull align 8 dereferenceable(16) %4)
  br i1 %8, label %9, label %11

9:                                                ; preds = %2
  %10 = call noundef i64 @_ZNK4base8internal14CheckedNumericIlE11ValueUnsafeEv(ptr noundef nonnull align 8 dereferenceable(16) %4)
  store i64 %10, ptr %3, align 8
  br label %21

11:                                               ; preds = %2
  call void @llvm.lifetime.start.p0(i64 8, ptr %5) #12
  %12 = call noundef i64 @_ZNSt14numeric_limitsIlE3maxEv() #12
  store i64 %12, ptr %5, align 8, !tbaa !8
  %13 = call noundef i32 @_ZNK4base8internal14CheckedNumericIlE8validityEv(ptr noundef nonnull align 8 dereferenceable(16) %4)
  %14 = icmp eq i32 %13, 1
  br i1 %14, label %15, label %18

15:                                               ; preds = %11
  %16 = load i64, ptr %5, align 8, !tbaa !8
  %17 = sub nsw i64 0, %16
  store i64 %17, ptr %5, align 8, !tbaa !8
  br label %18

18:                                               ; preds = %15, %11
  %19 = load i64, ptr %5, align 8, !tbaa !8
  %20 = call noundef i64 @_ZNK4base8internal14CheckedNumericIlE14ValueOrDefaultEl(ptr noundef nonnull align 8 dereferenceable(16) %4, i64 noundef %19)
  store i64 %20, ptr %3, align 8
  call void @llvm.lifetime.end.p0(i64 8, ptr %5) #12
  br label %21

21:                                               ; preds = %18, %9
  %22 = load i64, ptr %3, align 8
  ret i64 %22
}

; Function Attrs: mustprogress uwtable
define linkonce_odr noundef nonnull align 8 dereferenceable(16) ptr @_ZN4base8internal14CheckedNumericIlEpLIlEERS2_T_(ptr noundef nonnull align 8 dereferenceable(16) %0, i64 noundef %1) #0 comdat align 2 {
  %3 = alloca ptr, align 8
  %4 = alloca i64, align 8
  %5 = alloca %"class.base::internal::CheckedNumeric", align 8
  %6 = alloca %"class.base::internal::CheckedNumeric", align 8
  store ptr %0, ptr %3, align 8, !tbaa !14
  store i64 %1, ptr %4, align 8, !tbaa !8
  %7 = load ptr, ptr %3, align 8
  call void @llvm.lifetime.start.p0(i64 16, ptr %5) #12
  %8 = call noundef nonnull align 8 dereferenceable(16) ptr @_ZN4base8internal14CheckedNumericIlE4castERKS2_(ptr noundef nonnull align 8 dereferenceable(16) %7)
  call void @llvm.lifetime.start.p0(i64 16, ptr %6) #12
  %9 = load i64, ptr %4, align 8, !tbaa !8
  %10 = call { i64, i64 } @_ZN4base8internal14CheckedNumericIlE4castIlEES2_T_NSt9enable_ifIXsr3std14numeric_limitsIS4_EE14is_specializedEiE4typeE(i64 noundef %9, i32 noundef 0)
  %11 = getelementptr inbounds nuw %"class.base::internal::CheckedNumeric", ptr %6, i32 0, i32 0
  %12 = getelementptr inbounds nuw { i64, i64 }, ptr %11, i32 0, i32 0
  %13 = extractvalue { i64, i64 } %10, 0
  store i64 %13, ptr %12, align 8
  %14 = getelementptr inbounds nuw { i64, i64 }, ptr %11, i32 0, i32 1
  %15 = extractvalue { i64, i64 } %10, 1
  store i64 %15, ptr %14, align 8
  %16 = call { i64, i64 } @_ZN4base8internalplIlEENS0_14CheckedNumericINS0_19ArithmeticPromotionIT_S4_Xqugtsr11MaxExponentIS4_EE5valuesr11MaxExponentIS4_EE5valueLNS0_27ArithmeticPromotionCategoryE0ELS5_1EEE4typeEEERKNS2_IS4_EESB_(ptr noundef nonnull align 8 dereferenceable(16) %8, ptr noundef nonnull align 8 dereferenceable(16) %6)
  %17 = getelementptr inbounds nuw %"class.base::internal::CheckedNumeric", ptr %5, i32 0, i32 0
  %18 = getelementptr inbounds nuw { i64, i64 }, ptr %17, i32 0, i32 0
  %19 = extractvalue { i64, i64 } %16, 0
  store i64 %19, ptr %18, align 8
  %20 = getelementptr inbounds nuw { i64, i64 }, ptr %17, i32 0, i32 1
  %21 = extractvalue { i64, i64 } %16, 1
  store i64 %21, ptr %20, align 8
  call void @llvm.memcpy.p0.p0.i64(ptr align 8 %7, ptr align 8 %5, i64 16, i1 false), !tbaa.struct !12
  call void @llvm.lifetime.end.p0(i64 16, ptr %6) #12
  call void @llvm.lifetime.end.p0(i64 16, ptr %5) #12
  ret ptr %7
}

; Function Attrs: mustprogress uwtable
define linkonce_odr void @_ZN4base8internal14CheckedNumericIlEC2IlEET_(ptr noundef nonnull align 8 dereferenceable(16) %0, i64 noundef %1) unnamed_addr #0 comdat align 2 {
  %3 = alloca ptr, align 8
  %4 = alloca i64, align 8
  store ptr %0, ptr %3, align 8, !tbaa !14
  store i64 %1, ptr %4, align 8, !tbaa !8
  %5 = load ptr, ptr %3, align 8
  %6 = getelementptr inbounds nuw %"class.base::internal::CheckedNumeric", ptr %5, i32 0, i32 0
  %7 = load i64, ptr %4, align 8, !tbaa !8
  call void @_ZN4base8internal19CheckedNumericStateIlLNS0_21NumericRepresentationE0EEC2IlEET_NSt9enable_ifIXsr3std14numeric_limitsIS5_EE14is_specializedEiE4typeE(ptr noundef nonnull align 8 dereferenceable(9) %6, i64 noundef %7, i32 noundef 0)
  ret void
}

; Function Attrs: mustprogress uwtable
define noundef i64 @_ZN4base13time_internal12SaturatedAddENS_9TimeDeltaEl(i64 %0, i64 noundef %1) #0 {
  %3 = alloca %"class.base::TimeDelta", align 8
  %4 = alloca i64, align 8
  %5 = alloca %"class.base::internal::CheckedNumeric", align 8
  %6 = alloca %"class.base::internal::CheckedNumeric", align 8
  %7 = getelementptr inbounds nuw %"class.base::TimeDelta", ptr %3, i32 0, i32 0
  store i64 %0, ptr %7, align 8
  store i64 %1, ptr %4, align 8, !tbaa !8
  call void @llvm.lifetime.start.p0(i64 16, ptr %5) #12
  %8 = getelementptr inbounds nuw %"class.base::TimeDelta", ptr %3, i32 0, i32 0
  %9 = load i64, ptr %8, align 8, !tbaa !10
  call void @_ZN4base8internal14CheckedNumericIlEC2IlEET_(ptr noundef nonnull align 8 dereferenceable(16) %5, i64 noundef %9)
  %10 = load i64, ptr %4, align 8, !tbaa !8
  %11 = call noundef nonnull align 8 dereferenceable(16) ptr @_ZN4base8internal14CheckedNumericIlEpLIlEERS2_T_(ptr noundef nonnull align 8 dereferenceable(16) %5, i64 noundef %10)
  call void @llvm.memcpy.p0.p0.i64(ptr align 8 %6, ptr align 8 %5, i64 16, i1 false), !tbaa.struct !12
  %12 = getelementptr inbounds nuw { i64, i64 }, ptr %6, i32 0, i32 0
  %13 = load i64, ptr %12, align 8
  %14 = getelementptr inbounds nuw { i64, i64 }, ptr %6, i32 0, i32 1
  %15 = load i64, ptr %14, align 8
  %16 = call noundef i64 @_ZN4base13time_internal18FromCheckedNumericENS_8internal14CheckedNumericIlEE(i64 %13, i64 %15)
  call void @llvm.lifetime.end.p0(i64 16, ptr %5) #12
  ret i64 %16
}